target datalayout = "e-m:e-p270:32:32-p271:32:32-p272:64:64-i64:64-i128:128-f80:128-n8:16:32:64-S128"
target triple = "x86_64-pc-linux-gnu"

%"class.nanogui::Color" = type { %"struct.nanogui::Array.4" }
%"struct.nanogui::Array.4" = type { [4 x float] }

; Function Attrs: mustprogress nounwind uwtable
define linkonce_odr hidden void @_ZN7nanogui5ColorC2ERKNS_5ArrayIfLm4EEE(ptr noundef nonnull align 4 dereferenceable(16) %0, ptr noundef nonnull align 4 dereferenceable(16) %1) unnamed_addr #2 comdat align 2 {
  %3 = alloca ptr, align 8
  %4 = alloca ptr, align 8
  store ptr %0, ptr %3, align 8
  store ptr %1, ptr %4, align 8
  %5 = load ptr, ptr %3, align 8
  %6 = load ptr, ptr %4, align 8
  call void @llvm.memcpy.p0.p0.i64(ptr align 4 %5, ptr align 4 %6, i64 16, i1 false)
  ret void
}

; Function Attrs: mustprogress nounwind uwtable
define linkonce_odr hidden void @_ZN7nanogui5ArrayIfLm4EEC2ILm4ETnNSt9enable_ifIXeqT_Li4EEiE4typeELi0EEEffff(ptr noundef nonnull align 4 dereferenceable(16) %0, float noundef %1, float noundef %2, float noundef %3, float noundef %4) unnamed_addr #2 comdat align 2 {
  %6 = alloca ptr, align 8
  %7 = alloca float, align 4
  %8 = alloca float, align 4
  %9 = alloca float, align 4
  %10 = alloca float, align 4
  store ptr %0, ptr %6, align 8
  store float %1, ptr %7, align 4
  store float %2, ptr %8, align 4
  store float %3, ptr %9, align 4
  store float %4, ptr %10, align 4
  %11 = load ptr, ptr %6, align 8
  %12 = load float, ptr %7, align 4
  %13 = getelementptr inbounds %"struct.nanogui::Array.4", ptr %11, i32 0, i32 0
  %14 = getelementptr inbounds [4 x float], ptr %13, i64 0, i64 0
  store float %12, ptr %14, align 4
  %15 = load float, ptr %8, align 4
  %16 = getelementptr inbounds %"struct.nanogui::Array.4", ptr %11, i32 0, i32 0
  %17 = getelementptr inbounds [4 x float], ptr %16, i64 0, i64 1
  store float %15, ptr %17, align 4
  %18 = load float, ptr %9, align 4
  %19 = getelementptr inbounds %"struct.nanogui::Array.4", ptr %11, i32 0, i32 0
  %20 = getelementptr inbounds [4 x float], ptr %19, i64 0, i64 2
  store float %18, ptr %20, align 4
  %21 = load float, ptr %10, align 4
  %22 = getelementptr inbounds %"struct.nanogui::Array.4", ptr %11, i32 0, i32 0
  %23 = getelementptr inbounds [4 x float], ptr %22, i64 0, i64 3
  store float %21, ptr %23, align 4
  ret void
}

; Function Attrs: mustprogress uwtable
define linkonce_odr hidden void @_ZN7nanogui5ColorC2Effff(ptr noundef nonnull align 4 dereferenceable(16) %0, float noundef %1, float noundef %2, float noundef %3, float noundef %4) unnamed_addr #0 comdat align 2 {
  %6 = alloca ptr, align 8
  %7 = alloca float, align 4
  %8 = alloca float, align 4
  %9 = alloca float, align 4
  %10 = alloca float, align 4
  %11 = alloca %"struct.nanogui::Array.4", align 4
  store ptr %0, ptr %6, align 8
  store float %1, ptr %7, align 4
  store float %2, ptr %8, align 4
  store float %3, ptr %9, align 4
  store float %4, ptr %10, align 4
  %12 = load ptr, ptr %6, align 8
  %13 = load float, ptr %7, align 4
  %14 = load float, ptr %8, align 4
  %15 = load float, ptr %9, align 4
  %16 = load float, ptr %10, align 4
  call void @_ZN7nanogui5ArrayIfLm4EEC2ILm4ETnNSt9enable_ifIXeqT_Li4EEiE4typeELi0EEEffff(ptr noundef nonnull align 4 dereferenceable(16) %11, float noundef %13, float noundef %14, float noundef %15, float noundef %16)
  call void @_ZN7nanogui5ColorC2ERKNS_5ArrayIfLm4EEE(ptr noundef nonnull align 4 dereferenceable(16) %12, ptr noundef nonnull align 4 dereferenceable(16) %11)
  ret void
}

; Function Attrs: mustprogress uwtable
define hidden { <2 x float>, <2 x float> } @_ZNK7nanogui10ColorWheel7hue2rgbEf(ptr noundef nonnull align 8 dereferenceable(192) %0, float noundef %1) #0 align 2 {
  %3 = alloca %"class.nanogui::Color", align 4
  %4 = alloca ptr, align 8
  %5 = alloca float, align 4
  %6 = alloca float, align 4
  %7 = alloca float, align 4
  %8 = alloca i32, align 4
  %9 = alloca float, align 4
  %10 = alloca float, align 4
  %11 = alloca float, align 4
  %12 = alloca float, align 4
  %13 = alloca float, align 4
  %14 = alloca float, align 4
  %15 = alloca float, align 4
  store ptr %0, ptr %4, align 8
  store float %1, ptr %5, align 4
  store float 1.000000e+00, ptr %6, align 4
  store float 1.000000e+00, ptr %7, align 4
  %16 = load float, ptr %5, align 4
  %17 = fcmp olt float %16, 0.000000e+00
  br i1 %17, label %18, label %21

18:                                               ; preds = %2
  %19 = load float, ptr %5, align 4
  %20 = fadd float %19, 1.000000e+00
  store float %20, ptr %5, align 4
  br label %21

21:                                               ; preds = %18, %2
  %22 = load float, ptr %5, align 4
  %23 = fmul float %22, 6.000000e+00
  %24 = fptosi float %23 to i32
  store i32 %24, ptr %8, align 4
  %25 = load float, ptr %5, align 4
  %26 = load i32, ptr %8, align 4
  %27 = sitofp i32 %26 to float
  %28 = fneg float %27
  %29 = call float @llvm.fmuladd.f32(float %25, float 6.000000e+00, float %28)
  store float %29, ptr %9, align 4
  %30 = load float, ptr %7, align 4
  %31 = load float, ptr %6, align 4
  %32 = fsub float 1.000000e+00, %31
  %33 = fmul float %30, %32
  store float %33, ptr %10, align 4
  %34 = load float, ptr %7, align 4
  %35 = load float, ptr %9, align 4
  %36 = load float, ptr %6, align 4
  %37 = fneg float %35
  %38 = call float @llvm.fmuladd.f32(float %37, float %36, float 1.000000e+00)
  %39 = fmul float %34, %38
  store float %39, ptr %11, align 4
  %40 = load float, ptr %7, align 4
  %41 = load float, ptr %9, align 4
  %42 = fsub float 1.000000e+00, %41
  %43 = load float, ptr %6, align 4
  %44 = fneg float %42
  %45 = call float @llvm.fmuladd.f32(float %44, float %43, float 1.000000e+00)
  %46 = fmul float %40, %45
  store float %46, ptr %12, align 4
  store float 0.000000e+00, ptr %13, align 4
  store float 0.000000e+00, ptr %14, align 4
  store float 0.000000e+00, ptr %15, align 4
  %47 = load i32, ptr %8, align 4
  %48 = srem i32 %47, 6
  switch i32 %48, label %73 [
    i32 0, label %49
    i32 1, label %53
    i32 2, label %57
    i32 3, label %61
    i32 4, label %65
    i32 5, label %69
  ]

49:                                               ; preds = %21
  %50 = load float, ptr %7, align 4
  store float %50, ptr %13, align 4
  %51 = load float, ptr %12, align 4
  store float %51, ptr %14, align 4
  %52 = load float, ptr %10, align 4
  store float %52, ptr %15, align 4
  br label %73

53:                                               ; preds = %21
  %54 = load float, ptr %11, align 4
  store float %54, ptr %13, align 4
  %55 = load float, ptr %7, align 4
  store float %55, ptr %14, align 4
  %56 = load float, ptr %10, align 4
  store float %56, ptr %15, align 4
  br label %73

57:                                               ; preds = %21
  %58 = load float, ptr %10, align 4
  store float %58, ptr %13, align 4
  %59 = load float, ptr %7, align 4
  store float %59, ptr %14, align 4
  %60 = load float, ptr %12, align 4
  store float %60, ptr %15, align 4
  br label %73

61:                                               ; preds = %21
  %62 = load float, ptr %10, align 4
  store float %62, ptr %13, align 4
  %63 = load float, ptr %11, align 4
  store float %63, ptr %14, align 4
  %64 = load float, ptr %7, align 4
  store float %64, ptr %15, align 4
  br label %73

65:                                               ; preds = %21
  %66 = load float, ptr %12, align 4
  store float %66, ptr %13, align 4
  %67 = load float, ptr %10, align 4
  store float %67, ptr %14, align 4
  %68 = load float, ptr %7, align 4
  store float %68, ptr %15, align 4
  br label %73

69:                                               ; preds = %21
  %70 = load float, ptr %7, align 4
  store float %70, ptr %13, align 4
  %71 = load float, ptr %10, align 4
  store float %71, ptr %14, align 4
  %72 = load float, ptr %11, align 4
  store float %72, ptr %15, align 4
  br label %73

73:                                               ; preds = %69, %65, %61, %57, %53, %49, %21
  %74 = load float, ptr %13, align 4
  %75 = load float, ptr %14, align 4
  %76 = load float, ptr %15, align 4
  call void @_ZN7nanogui5ColorC2Effff(ptr noundef nonnull align 4 dereferenceable(16) %3, float noundef %74, float noundef %75, float noundef %76, float noundef 1.000000e+00)
  %77 = getelementptr inbounds %"class.nanogui::Color", ptr %3, i32 0, i32 0
  %78 = getelementptr inbounds %"struct.nanogui::Array.4", ptr %77, i32 0, i32 0
  %79 = load { <2 x float>, <2 x float> }, ptr %78, align 4
  ret { <2 x float>, <2 x float> } %79
}