; Function Attrs: mustprogress nofree norecurse nosync nounwind willreturn memory(none) uwtable
define hidden { <2 x float>, <2 x float> } @_ZNK7nanogui10ColorWheel7hue2rgbEf(ptr nocapture noundef nonnull readnone align 8 dereferenceable(192) %0, float noundef %1) local_unnamed_addr #4 align 2 {
  %3 = fcmp olt float %1, 0.000000e+00
  %4 = fadd float %1, 1.000000e+00
  %.036 = select i1 %3, float %4, float %1
  %5 = fmul float %.036, 6.000000e+00
  %6 = fptosi float %5 to i32
  %7 = sitofp i32 %6 to float
  %8 = fneg float %7
  %9 = tail call float @llvm.fmuladd.f32(float %.036, float 6.000000e+00, float %8)
  %10 = fsub float 1.000000e+00, %9
  %11 = fadd float %9, -1.000000e+00
  %12 = fadd float %11, 1.000000e+00
  %13 = srem i32 %6, 6
  switch i32 %13, label %20 [
    i32 0, label %14
    i32 1, label %15
    i32 2, label %16
    i32 3, label %17
    i32 4, label %18
    i32 5, label %19
  ]

14:                                               ; preds = %2
  br label %20

15:                                               ; preds = %2
  br label %20

16:                                               ; preds = %2
  br label %20

17:                                               ; preds = %2
  br label %20

18:                                               ; preds = %2
  br label %20

19:                                               ; preds = %2
  br label %20

20:                                               ; preds = %19, %18, %17, %16, %15, %14, %2
  %.035 = phi float [ 0.000000e+00, %2 ], [ 1.000000e+00, %19 ], [ %12, %18 ], [ 0.000000e+00, %17 ], [ 0.000000e+00, %16 ], [ %10, %15 ], [ 1.000000e+00, %14 ]
  %.034 = phi float [ 0.000000e+00, %2 ], [ 0.000000e+00, %19 ], [ 0.000000e+00, %18 ], [ %10, %17 ], [ 1.000000e+00, %16 ], [ 1.000000e+00, %15 ], [ %12, %14 ]
  %.0 = phi float [ 0.000000e+00, %2 ], [ %10, %19 ], [ 1.000000e+00, %18 ], [ 1.000000e+00, %17 ], [ %12, %16 ], [ 0.000000e+00, %15 ], [ 0.000000e+00, %14 ]
  %.sroa.0.0.vec.insert = insertelement <2 x float> poison, float %.035, i64 0
  %.sroa.0.4.vec.insert = insertelement <2 x float> %.sroa.0.0.vec.insert, float %.034, i64 1
  %.sroa.3.12.vec.insert = insertelement <2 x float> <float poison, float 1.000000e+00>, float %.0, i64 0
  %.fca.0.insert = insertvalue { <2 x float>, <2 x float> } poison, <2 x float> %.sroa.0.4.vec.insert, 0
  %.fca.1.insert = insertvalue { <2 x float>, <2 x float> } %.fca.0.insert, <2 x float> %.sroa.3.12.vec.insert, 1
  ret { <2 x float>, <2 x float> } %.fca.1.insert
}